; Function Attrs: nounwind uwtable
define range(i32 -1, 2) i32 @pqFlush(ptr noundef %0) local_unnamed_addr #2 {
  %2 = getelementptr inbounds nuw i8, ptr %0, i64 1036
  %3 = load i32, ptr %2, align 4
  %4 = icmp sgt i32 %3, 0
  br i1 %4, label %5, label %13

5:                                                ; preds = %1
  %6 = getelementptr inbounds nuw i8, ptr %0, i64 352
  %7 = load ptr, ptr %6, align 8
  %.not = icmp eq ptr %7, null
  br i1 %.not, label %10, label %8

8:                                                ; preds = %5
  %9 = tail call i32 @fflush(ptr noundef nonnull %7)
  %.pre = load i32, ptr %2, align 4
  br label %10

10:                                               ; preds = %8, %5
  %11 = phi i32 [ %.pre, %8 ], [ %3, %5 ]
  %12 = tail call fastcc i32 @pqSendSome(ptr noundef nonnull %0, i32 noundef %11)
  br label %13

13:                                               ; preds = %1, %10
  %.0 = phi i32 [ %12, %10 ], [ 0, %1 ]
  ret i32 %.0
}